target datalayout = "e-m:e-p270:32:32-p271:32:32-p272:64:64-i64:64-i128:128-f80:128-n8:16:32:64-S128"
target triple = "x86_64-pc-linux-gnu"

%struct.StringInfoData = type { ptr, i32, i32, i32 }

@.str.1 = private unnamed_addr constant [11 x i8] c"pqformat.c\00", align 1
@.str.4 = private unnamed_addr constant [26 x i8] c"invalid string in message\00", align 1
@__func__.pq_getmsgstring = private unnamed_addr constant [16 x i8] c"pq_getmsgstring\00", align 1

; Function Attrs: nounwind uwtable
define dso_local ptr @pq_getmsgstring(ptr noundef %0) #0 {
  %2 = alloca ptr, align 8
  %3 = alloca ptr, align 8
  %4 = alloca i32, align 4
  store ptr %0, ptr %2, align 8
  call void @llvm.lifetime.start.p0(i64 8, ptr %3) #8
  call void @llvm.lifetime.start.p0(i64 4, ptr %4) #8
  %5 = load ptr, ptr %2, align 8
  %6 = getelementptr inbounds nuw %struct.StringInfoData, ptr %5, i32 0, i32 0
  %7 = load ptr, ptr %6, align 8
  %8 = load ptr, ptr %2, align 8
  %9 = getelementptr inbounds nuw %struct.StringInfoData, ptr %8, i32 0, i32 3
  %10 = load i32, ptr %9, align 8
  %11 = sext i32 %10 to i64
  %12 = getelementptr inbounds i8, ptr %7, i64 %11
  store ptr %12, ptr %3, align 8
  %13 = load ptr, ptr %3, align 8
  %14 = call i64 @strlen(ptr noundef %13) #9
  %15 = trunc i64 %14 to i32
  store i32 %15, ptr %4, align 4
  %16 = load ptr, ptr %2, align 8
  %17 = getelementptr inbounds nuw %struct.StringInfoData, ptr %16, i32 0, i32 3
  %18 = load i32, ptr %17, align 8
  %19 = load i32, ptr %4, align 4
  %20 = add i32 %18, %19
  %21 = load ptr, ptr %2, align 8
  %22 = getelementptr inbounds nuw %struct.StringInfoData, ptr %21, i32 0, i32 1
  %23 = load i32, ptr %22, align 8
  %24 = icmp sge i32 %20, %23
  br i1 %24, label %25, label %37

25:                                               ; preds = %1
  br label %26

26:                                               ; preds = %25
  br i1 true, label %27, label %29

27:                                               ; preds = %26
  %28 = call zeroext i1 @errstart_cold(i32 noundef 21, ptr noundef null) #10
  br i1 %28, label %31, label %34

29:                                               ; preds = %26
  %30 = call zeroext i1 @errstart(i32 noundef 21, ptr noundef null)
  br i1 %30, label %31, label %34

31:                                               ; preds = %29, %27
  %32 = call i32 @errcode(i32 noundef 16908800)
  %33 = call i32 (ptr, ...) @errmsg(ptr noundef @.str.4)
  call void @errfinish(ptr noundef @.str.1, i32 noundef 595, ptr noundef @__func__.pq_getmsgstring)
  br label %34

34:                                               ; preds = %31, %29, %27
  unreachable

35:                                               ; No predecessors!
  br label %36

36:                                               ; preds = %35
  br label %37

37:                                               ; preds = %36, %1
  %38 = load i32, ptr %4, align 4
  %39 = add i32 %38, 1
  %40 = load ptr, ptr %2, align 8
  %41 = getelementptr inbounds nuw %struct.StringInfoData, ptr %40, i32 0, i32 3
  %42 = load i32, ptr %41, align 8
  %43 = add i32 %42, %39
  store i32 %43, ptr %41, align 8
  %44 = load ptr, ptr %3, align 8
  %45 = load i32, ptr %4, align 4
  %46 = call ptr @pg_client_to_server(ptr noundef %44, i32 noundef %45)
  call void @llvm.lifetime.end.p0(i64 4, ptr %4) #8
  call void @llvm.lifetime.end.p0(i64 8, ptr %3) #8
  ret ptr %46
}